; Function Attrs: nounwind uwtable
define range(i32 -1094995529, 1) i32 @ff_vvc_luma_mv_merge_ibc(ptr noundef %0, i32 noundef %1, ptr noundef writeonly captures(none) %2) local_unnamed_addr #7 {
  tail call fastcc void @ibc_merge_candidates(ptr noundef %0, i32 noundef %1, ptr noundef %2)
  %4 = getelementptr i8, ptr %0, i64 4547736
  %.val = load ptr, ptr %4, align 8, !tbaa !80
  %5 = getelementptr i8, ptr %0, i64 4580552
  %.val4 = load ptr, ptr %5, align 8, !tbaa !30
  %6 = getelementptr inbounds nuw i8, ptr %.val4, i64 1928
  %7 = load ptr, ptr %6, align 8, !tbaa !104
  %8 = getelementptr inbounds nuw i8, ptr %7, i64 32
  %9 = load i16, ptr %8, align 8, !tbaa !212
  %10 = zext i16 %9 to i32
  %11 = getelementptr inbounds nuw i8, ptr %.val, i64 8
  %12 = load i32, ptr %11, align 8, !tbaa !91
  %13 = getelementptr inbounds nuw i8, ptr %.val, i64 580
  %14 = load i32, ptr %13, align 4, !tbaa !9
  %15 = ashr i32 %14, 4
  %16 = add nsw i32 %15, %12
  %17 = add nsw i32 %10, -1
  %18 = and i32 %16, %17
  %19 = getelementptr inbounds nuw i8, ptr %.val, i64 16
  %20 = load i32, ptr %19, align 8, !tbaa !83
  %21 = add nsw i32 %18, %20
  %22 = icmp sgt i32 %21, %10
  br i1 %22, label %23, label %ibc_check_mv.exit

23:                                               ; preds = %3
  %24 = load ptr, ptr %.val4, align 8, !tbaa !213
  tail call void (ptr, i32, ptr, ...) @av_log(ptr noundef %24, i32 noundef 16, ptr noundef nonnull @.str) #14
  br label %ibc_check_mv.exit

ibc_check_mv.exit:                                ; preds = %3, %23
  %.0.i = phi i32 [ -1094995529, %23 ], [ 0, %3 ]
  ret i32 %.0.i
}